target datalayout = "e-m:e-p270:32:32-p271:32:32-p272:64:64-i64:64-i128:128-f80:128-n8:16:32:64-S128"
target triple = "x86_64-pc-linux-gnu"

%struct.SN_env = type { ptr, i32, i32, i32, i32, i32, ptr, ptr }

@s_19 = internal constant [2 x i8] c"al", align 1
@s_20 = internal constant [2 x i8] c"ic", align 1

; Function Attrs: nounwind uwtable
define internal i32 @r_R1(ptr noundef %0) #0 {
  %2 = alloca i32, align 4
  %3 = alloca ptr, align 8
  store ptr %0, ptr %3, align 8
  %4 = load ptr, ptr %3, align 8
  %5 = getelementptr inbounds nuw %struct.SN_env, ptr %4, i32 0, i32 7
  %6 = load ptr, ptr %5, align 8
  %7 = getelementptr inbounds i32, ptr %6, i64 1
  %8 = load i32, ptr %7, align 4
  %9 = load ptr, ptr %3, align 8
  %10 = getelementptr inbounds nuw %struct.SN_env, ptr %9, i32 0, i32 1
  %11 = load i32, ptr %10, align 8
  %12 = icmp sle i32 %8, %11
  br i1 %12, label %14, label %13

13:                                               ; preds = %1
  store i32 0, ptr %2, align 4
  br label %15

14:                                               ; preds = %1
  store i32 1, ptr %2, align 4
  br label %15

15:                                               ; preds = %14, %13
  %16 = load i32, ptr %2, align 4
  ret i32 %16
}

; Function Attrs: nounwind uwtable
define internal i32 @r_Step_3(ptr noundef %0) #0 {
  %2 = alloca i32, align 4
  %3 = alloca ptr, align 8
  %4 = alloca i32, align 4
  %5 = alloca i32, align 4
  %6 = alloca i32, align 4
  %7 = alloca i32, align 4
  %8 = alloca i32, align 4
  %9 = alloca i32, align 4
  store ptr %0, ptr %3, align 8
  call void @llvm.lifetime.start.p0(i64 4, ptr %4) #3
  %10 = load ptr, ptr %3, align 8
  %11 = getelementptr inbounds nuw %struct.SN_env, ptr %10, i32 0, i32 1
  %12 = load i32, ptr %11, align 8
  %13 = load ptr, ptr %3, align 8
  %14 = getelementptr inbounds nuw %struct.SN_env, ptr %13, i32 0, i32 5
  store i32 %12, ptr %14, align 8
  %15 = load ptr, ptr %3, align 8
  %16 = getelementptr inbounds nuw %struct.SN_env, ptr %15, i32 0, i32 1
  %17 = load i32, ptr %16, align 8
  %18 = sub i32 %17, 2
  %19 = load ptr, ptr %3, align 8
  %20 = getelementptr inbounds nuw %struct.SN_env, ptr %19, i32 0, i32 3
  %21 = load i32, ptr %20, align 8
  %22 = icmp sle i32 %18, %21
  br i1 %22, label %53, label %23

23:                                               ; preds = %1
  %24 = load ptr, ptr %3, align 8
  %25 = getelementptr inbounds nuw %struct.SN_env, ptr %24, i32 0, i32 0
  %26 = load ptr, ptr %25, align 8
  %27 = load ptr, ptr %3, align 8
  %28 = getelementptr inbounds nuw %struct.SN_env, ptr %27, i32 0, i32 1
  %29 = load i32, ptr %28, align 8
  %30 = sub i32 %29, 1
  %31 = sext i32 %30 to i64
  %32 = getelementptr inbounds i8, ptr %26, i64 %31
  %33 = load i8, ptr %32, align 1
  %34 = zext i8 %33 to i32
  %35 = ashr i32 %34, 5
  %36 = icmp ne i32 %35, 3
  br i1 %36, label %53, label %37

37:                                               ; preds = %23
  %38 = load ptr, ptr %3, align 8
  %39 = getelementptr inbounds nuw %struct.SN_env, ptr %38, i32 0, i32 0
  %40 = load ptr, ptr %39, align 8
  %41 = load ptr, ptr %3, align 8
  %42 = getelementptr inbounds nuw %struct.SN_env, ptr %41, i32 0, i32 1
  %43 = load i32, ptr %42, align 8
  %44 = sub i32 %43, 1
  %45 = sext i32 %44 to i64
  %46 = getelementptr inbounds i8, ptr %40, i64 %45
  %47 = load i8, ptr %46, align 1
  %48 = zext i8 %47 to i32
  %49 = and i32 %48, 31
  %50 = ashr i32 528928, %49
  %51 = and i32 %50, 1
  %52 = icmp ne i32 %51, 0
  br i1 %52, label %54, label %53

53:                                               ; preds = %37, %23, %1
  store i32 0, ptr %2, align 4
  store i32 1, ptr %5, align 4
  br label %111

54:                                               ; preds = %37
  %55 = load ptr, ptr %3, align 8
  %56 = call i32 @find_among_b(ptr noundef %55, ptr noundef @a_4, i32 noundef 7)
  store i32 %56, ptr %4, align 4
  %57 = load i32, ptr %4, align 4
  %58 = icmp ne i32 %57, 0
  br i1 %58, label %60, label %59

59:                                               ; preds = %54
  store i32 0, ptr %2, align 4
  store i32 1, ptr %5, align 4
  br label %111

60:                                               ; preds = %54
  %61 = load ptr, ptr %3, align 8
  %62 = getelementptr inbounds nuw %struct.SN_env, ptr %61, i32 0, i32 1
  %63 = load i32, ptr %62, align 8
  %64 = load ptr, ptr %3, align 8
  %65 = getelementptr inbounds nuw %struct.SN_env, ptr %64, i32 0, i32 4
  store i32 %63, ptr %65, align 4
  call void @llvm.lifetime.start.p0(i64 4, ptr %6) #3
  %66 = load ptr, ptr %3, align 8
  %67 = call i32 @r_R1(ptr noundef %66)
  store i32 %67, ptr %6, align 4
  %68 = load i32, ptr %6, align 4
  %69 = icmp sle i32 %68, 0
  br i1 %69, label %70, label %72

70:                                               ; preds = %60
  %71 = load i32, ptr %6, align 4
  store i32 %71, ptr %2, align 4
  store i32 1, ptr %5, align 4
  br label %73

72:                                               ; preds = %60
  store i32 0, ptr %5, align 4
  br label %73

73:                                               ; preds = %72, %70
  call void @llvm.lifetime.end.p0(i64 4, ptr %6) #3
  %74 = load i32, ptr %5, align 4
  switch i32 %74, label %111 [
    i32 0, label %75
  ]

75:                                               ; preds = %73
  %76 = load i32, ptr %4, align 4
  switch i32 %76, label %110 [
    i32 1, label %77
    i32 2, label %88
    i32 3, label %99
  ]

77:                                               ; preds = %75
  call void @llvm.lifetime.start.p0(i64 4, ptr %7) #3
  %78 = load ptr, ptr %3, align 8
  %79 = call i32 @slice_from_s(ptr noundef %78, i32 noundef 2, ptr noundef @s_19)
  store i32 %79, ptr %7, align 4
  %80 = load i32, ptr %7, align 4
  %81 = icmp slt i32 %80, 0
  br i1 %81, label %82, label %84

82:                                               ; preds = %77
  %83 = load i32, ptr %7, align 4
  store i32 %83, ptr %2, align 4
  store i32 1, ptr %5, align 4
  br label %85

84:                                               ; preds = %77
  store i32 0, ptr %5, align 4
  br label %85

85:                                               ; preds = %84, %82
  call void @llvm.lifetime.end.p0(i64 4, ptr %7) #3
  %86 = load i32, ptr %5, align 4
  switch i32 %86, label %111 [
    i32 0, label %87
  ]

87:                                               ; preds = %85
  br label %110

88:                                               ; preds = %75
  call void @llvm.lifetime.start.p0(i64 4, ptr %8) #3
  %89 = load ptr, ptr %3, align 8
  %90 = call i32 @slice_from_s(ptr noundef %89, i32 noundef 2, ptr noundef @s_20)
  store i32 %90, ptr %8, align 4
  %91 = load i32, ptr %8, align 4
  %92 = icmp slt i32 %91, 0
  br i1 %92, label %93, label %95

93:                                               ; preds = %88
  %94 = load i32, ptr %8, align 4
  store i32 %94, ptr %2, align 4
  store i32 1, ptr %5, align 4
  br label %96

95:                                               ; preds = %88
  store i32 0, ptr %5, align 4
  br label %96

96:                                               ; preds = %95, %93
  call void @llvm.lifetime.end.p0(i64 4, ptr %8) #3
  %97 = load i32, ptr %5, align 4
  switch i32 %97, label %111 [
    i32 0, label %98
  ]

98:                                               ; preds = %96
  br label %110

99:                                               ; preds = %75
  call void @llvm.lifetime.start.p0(i64 4, ptr %9) #3
  %100 = load ptr, ptr %3, align 8
  %101 = call i32 @slice_del(ptr noundef %100)
  store i32 %101, ptr %9, align 4
  %102 = load i32, ptr %9, align 4
  %103 = icmp slt i32 %102, 0
  br i1 %103, label %104, label %106

104:                                              ; preds = %99
  %105 = load i32, ptr %9, align 4
  store i32 %105, ptr %2, align 4
  store i32 1, ptr %5, align 4
  br label %107

106:                                              ; preds = %99
  store i32 0, ptr %5, align 4
  br label %107

107:                                              ; preds = %106, %104
  call void @llvm.lifetime.end.p0(i64 4, ptr %9) #3
  %108 = load i32, ptr %5, align 4
  switch i32 %108, label %111 [
    i32 0, label %109
  ]

109:                                              ; preds = %107
  br label %110

110:                                              ; preds = %75, %109, %98, %87
  store i32 1, ptr %2, align 4
  store i32 1, ptr %5, align 4
  br label %111

111:                                              ; preds = %110, %107, %96, %85, %73, %59, %53
  call void @llvm.lifetime.end.p0(i64 4, ptr %4) #3
  %112 = load i32, ptr %2, align 4
  ret i32 %112
}