; Function Attrs: nounwind uwtable
define internal fastcc range(i32 -2147483648, 2) i32 @r_Step_3(ptr noundef initializes((24, 28)) %0) unnamed_addr #0 {
  %2 = getelementptr inbounds nuw i8, ptr %0, i64 8
  %3 = load i32, ptr %2, align 8
  %4 = getelementptr inbounds nuw i8, ptr %0, i64 24
  store i32 %3, ptr %4, align 8
  %5 = add i32 %3, -2
  %6 = getelementptr inbounds nuw i8, ptr %0, i64 16
  %7 = load i32, ptr %6, align 8
  %.not = icmp sgt i32 %5, %7
  br i1 %.not, label %8, label %37

8:                                                ; preds = %1
  %9 = load ptr, ptr %0, align 8
  %10 = add i32 %3, -1
  %11 = sext i32 %10 to i64
  %12 = getelementptr inbounds i8, ptr %9, i64 %11
  %13 = load i8, ptr %12, align 1
  %14 = zext i8 %13 to i32
  %.mask = and i32 %14, 224
  %.not40 = icmp eq i32 %.mask, 96
  br i1 %.not40, label %15, label %37

15:                                               ; preds = %8
  %16 = and i32 %14, 31
  %17 = shl nuw i32 1, %16
  %18 = and i32 %17, 528928
  %.not41 = icmp eq i32 %18, 0
  br i1 %.not41, label %37, label %19

19:                                               ; preds = %15
  %20 = tail call i32 @find_among_b(ptr noundef nonnull %0, ptr noundef nonnull @a_4, i32 noundef 7) #3
  %.not42 = icmp eq i32 %20, 0
  br i1 %.not42, label %37, label %21

21:                                               ; preds = %19
  %22 = load i32, ptr %2, align 8
  %23 = getelementptr inbounds nuw i8, ptr %0, i64 20
  store i32 %22, ptr %23, align 4
  %24 = getelementptr i8, ptr %0, i64 40
  %.val46 = load ptr, ptr %24, align 8
  %25 = getelementptr i8, ptr %.val46, i64 4
  %.val46.val = load i32, ptr %25, align 4
  %.not.i.not = icmp sgt i32 %.val46.val, %22
  br i1 %.not.i.not, label %37, label %26

26:                                               ; preds = %21
  switch i32 %20, label %36 [
    i32 1, label %27
    i32 2, label %30
    i32 3, label %33
  ]

27:                                               ; preds = %26
  %28 = tail call i32 @slice_from_s(ptr noundef nonnull %0, i32 noundef 2, ptr noundef nonnull @s_19) #3
  %29 = icmp sgt i32 %28, -1
  br i1 %29, label %36, label %37

30:                                               ; preds = %26
  %31 = tail call i32 @slice_from_s(ptr noundef nonnull %0, i32 noundef 2, ptr noundef nonnull @s_20) #3
  %32 = icmp sgt i32 %31, -1
  br i1 %32, label %36, label %37

33:                                               ; preds = %26
  %34 = tail call i32 @slice_del(ptr noundef nonnull %0) #3
  %35 = icmp sgt i32 %34, -1
  br i1 %35, label %36, label %37

36:                                               ; preds = %33, %30, %27, %26
  br label %37

37:                                               ; preds = %19, %1, %8, %15, %27, %30, %33, %21, %36
  %.0 = phi i32 [ 1, %36 ], [ %34, %33 ], [ %31, %30 ], [ %28, %27 ], [ 0, %21 ], [ 0, %15 ], [ 0, %8 ], [ 0, %1 ], [ 0, %19 ]
  ret i32 %.0
}